; ModuleID = 'bench/hdf5/original/H5TSrwlock.ll'
source_filename = "bench/hdf5/original/H5TSrwlock.ll"
target datalayout = "e-m:e-p270:32:32-p271:32:32-p272:64:64-i64:64-i128:128-f80:128-n8:16:32:64-S128"
target triple = "x86_64-pc-linux-gnu"

; Function Attrs: nounwind uwtable
define range(i32 -1, 1) i32 @H5TS_rwlock_init(ptr noundef %0) local_unnamed_addr #0 {
  %2 = icmp eq ptr %0, null
  br i1 %2, label %6, label %3, !prof !3

3:                                                ; preds = %1
  %4 = tail call i32 @pthread_rwlock_init(ptr noundef nonnull %0, ptr noundef null) #2
  %.not = icmp eq i32 %4, 0
  br i1 %.not, label %6, label %5, !prof !4

5:                                                ; preds = %3
  br label %6

6:                                                ; preds = %1, %3, %5
  %.0 = phi i32 [ -1, %5 ], [ 0, %3 ], [ -1, %1 ]
  ret i32 %.0
}

; Function Attrs: nounwind
declare i32 @pthread_rwlock_init(ptr noundef, ptr noundef) local_unnamed_addr #1

; Function Attrs: nounwind uwtable
define range(i32 -1, 1) i32 @H5TS_rwlock_destroy(ptr noundef %0) local_unnamed_addr #0 {
  %2 = icmp eq ptr %0, null
  br i1 %2, label %6, label %3, !prof !3

3:                                                ; preds = %1
  %4 = tail call i32 @pthread_rwlock_destroy(ptr noundef nonnull %0) #2
  %.not = icmp eq i32 %4, 0
  br i1 %.not, label %6, label %5, !prof !4

5:                                                ; preds = %3
  br label %6

6:                                                ; preds = %1, %3, %5
  %.0 = phi i32 [ -1, %5 ], [ 0, %3 ], [ -1, %1 ]
  ret i32 %.0
}

; Function Attrs: nounwind
declare i32 @pthread_rwlock_destroy(ptr noundef) local_unnamed_addr #1


!llvm.module.flags = !{!0, !1, !2}

!0 = !{i32 1, !"wchar_size", i32 4}
!1 = !{i32 8, !"PIC Level", i32 2}
!2 = !{i32 7, !"uwtable", i32 2}
!3 = !{!"branch_weights", !"expected", i32 1, i32 2000}
!4 = !{!"branch_weights", !"expected", i32 2000, i32 1}
